target datalayout = "e-m:e-p270:32:32-p271:32:32-p272:64:64-i64:64-i128:128-f80:128-n8:16:32:64-S128"
target triple = "x86_64-pc-linux-gnu"

%struct.WindowAggState = type { %struct.ScanState, ptr, i32, i32, ptr, ptr, ptr, ptr, ptr, i32, i32, i32, i32, i64, i64, i64, i64, ptr, i64, i64, i32, i32, ptr, ptr, i64, i64, %struct.FmgrInfo, %struct.FmgrInfo, i32, i8, i8, i8, i8, ptr, i64, i64, i64, i64, i64, ptr, ptr, ptr, ptr, i8, i8, i8, i8, i8, i8, i8, ptr, ptr, ptr, ptr, ptr, ptr }
%struct.ScanState = type { %struct.PlanState, ptr, ptr, ptr }
%struct.PlanState = type { i32, ptr, ptr, ptr, ptr, ptr, ptr, ptr, ptr, ptr, ptr, ptr, ptr, ptr, ptr, ptr, ptr, ptr, i8, ptr, ptr, ptr, ptr, ptr, i8, i8, i8, i8, i8, i8, i8, i8 }
%struct.FmgrInfo = type { ptr, i32, i16, i8, i8, i8, ptr, ptr, ptr }
%struct.WindowStatePerFuncData = type { ptr, ptr, i32, %struct.FmgrInfo, i32, i16, i8, i8, i32, ptr }
%struct.WindowStatePerAggData = type { i32, i32, i32, %struct.FmgrInfo, %struct.FmgrInfo, %struct.FmgrInfo, i32, i64, i8, i64, i8, i16, i16, i16, i8, i8, i8, i32, ptr, i64, i8, i64, i8 }
%struct.WindowObjectData = type { i32, ptr, ptr, ptr, i32, i32, i64, i64 }

; Function Attrs: nounwind uwtable
define internal void @release_partition(ptr noundef %0) #0 {
  %2 = alloca ptr, align 8
  %3 = alloca i32, align 4
  %4 = alloca ptr, align 8
  store ptr %0, ptr %2, align 8
  call void @llvm.lifetime.start.p0(i64 4, ptr %3) #8
  store i32 0, ptr %3, align 4
  br label %5

5:                                                ; preds = %28, %1
  %6 = load i32, ptr %3, align 4
  %7 = load ptr, ptr %2, align 8
  %8 = getelementptr inbounds nuw %struct.WindowAggState, ptr %7, i32 0, i32 2
  %9 = load i32, ptr %8, align 8
  %10 = icmp slt i32 %6, %9
  br i1 %10, label %11, label %31

11:                                               ; preds = %5
  call void @llvm.lifetime.start.p0(i64 8, ptr %4) #8
  %12 = load ptr, ptr %2, align 8
  %13 = getelementptr inbounds nuw %struct.WindowAggState, ptr %12, i32 0, i32 4
  %14 = load ptr, ptr %13, align 8
  %15 = load i32, ptr %3, align 4
  %16 = sext i32 %15 to i64
  %17 = getelementptr inbounds %struct.WindowStatePerFuncData, ptr %14, i64 %16
  store ptr %17, ptr %4, align 8
  %18 = load ptr, ptr %4, align 8
  %19 = getelementptr inbounds nuw %struct.WindowStatePerFuncData, ptr %18, i32 0, i32 9
  %20 = load ptr, ptr %19, align 8
  %21 = icmp ne ptr %20, null
  br i1 %21, label %22, label %27

22:                                               ; preds = %11
  %23 = load ptr, ptr %4, align 8
  %24 = getelementptr inbounds nuw %struct.WindowStatePerFuncData, ptr %23, i32 0, i32 9
  %25 = load ptr, ptr %24, align 8
  %26 = getelementptr inbounds nuw %struct.WindowObjectData, ptr %25, i32 0, i32 3
  store ptr null, ptr %26, align 8
  br label %27

27:                                               ; preds = %22, %11
  call void @llvm.lifetime.end.p0(i64 8, ptr %4) #8
  br label %28

28:                                               ; preds = %27
  %29 = load i32, ptr %3, align 4
  %30 = add i32 %29, 1
  store i32 %30, ptr %3, align 4
  br label %5, !llvm.loop !13

31:                                               ; preds = %5
  %32 = load ptr, ptr %2, align 8
  %33 = getelementptr inbounds nuw %struct.WindowAggState, ptr %32, i32 0, i32 39
  %34 = load ptr, ptr %33, align 8
  call void @MemoryContextReset(ptr noundef %34)
  %35 = load ptr, ptr %2, align 8
  %36 = getelementptr inbounds nuw %struct.WindowAggState, ptr %35, i32 0, i32 40
  %37 = load ptr, ptr %36, align 8
  call void @MemoryContextReset(ptr noundef %37)
  store i32 0, ptr %3, align 4
  br label %38

38:                                               ; preds = %67, %31
  %39 = load i32, ptr %3, align 4
  %40 = load ptr, ptr %2, align 8
  %41 = getelementptr inbounds nuw %struct.WindowAggState, ptr %40, i32 0, i32 3
  %42 = load i32, ptr %41, align 4
  %43 = icmp slt i32 %39, %42
  br i1 %43, label %44, label %70

44:                                               ; preds = %38
  %45 = load ptr, ptr %2, align 8
  %46 = getelementptr inbounds nuw %struct.WindowAggState, ptr %45, i32 0, i32 5
  %47 = load ptr, ptr %46, align 8
  %48 = load i32, ptr %3, align 4
  %49 = sext i32 %48 to i64
  %50 = getelementptr inbounds %struct.WindowStatePerAggData, ptr %47, i64 %49
  %51 = getelementptr inbounds nuw %struct.WindowStatePerAggData, ptr %50, i32 0, i32 18
  %52 = load ptr, ptr %51, align 8
  %53 = load ptr, ptr %2, align 8
  %54 = getelementptr inbounds nuw %struct.WindowAggState, ptr %53, i32 0, i32 40
  %55 = load ptr, ptr %54, align 8
  %56 = icmp ne ptr %52, %55
  br i1 %56, label %57, label %66

57:                                               ; preds = %44
  %58 = load ptr, ptr %2, align 8
  %59 = getelementptr inbounds nuw %struct.WindowAggState, ptr %58, i32 0, i32 5
  %60 = load ptr, ptr %59, align 8
  %61 = load i32, ptr %3, align 4
  %62 = sext i32 %61 to i64
  %63 = getelementptr inbounds %struct.WindowStatePerAggData, ptr %60, i64 %62
  %64 = getelementptr inbounds nuw %struct.WindowStatePerAggData, ptr %63, i32 0, i32 18
  %65 = load ptr, ptr %64, align 8
  call void @MemoryContextReset(ptr noundef %65)
  br label %66

66:                                               ; preds = %57, %44
  br label %67

67:                                               ; preds = %66
  %68 = load i32, ptr %3, align 4
  %69 = add i32 %68, 1
  store i32 %69, ptr %3, align 4
  br label %38, !llvm.loop !14

70:                                               ; preds = %38
  %71 = load ptr, ptr %2, align 8
  %72 = getelementptr inbounds nuw %struct.WindowAggState, ptr %71, i32 0, i32 8
  %73 = load ptr, ptr %72, align 8
  %74 = icmp ne ptr %73, null
  br i1 %74, label %75, label %79

75:                                               ; preds = %70
  %76 = load ptr, ptr %2, align 8
  %77 = getelementptr inbounds nuw %struct.WindowAggState, ptr %76, i32 0, i32 8
  %78 = load ptr, ptr %77, align 8
  call void @tuplestore_clear(ptr noundef %78)
  br label %79

79:                                               ; preds = %75, %70
  %80 = load ptr, ptr %2, align 8
  %81 = getelementptr inbounds nuw %struct.WindowAggState, ptr %80, i32 0, i32 44
  store i8 0, ptr %81, align 1
  %82 = load ptr, ptr %2, align 8
  %83 = getelementptr inbounds nuw %struct.WindowAggState, ptr %82, i32 0, i32 45
  store i8 1, ptr %83, align 2
  call void @llvm.lifetime.end.p0(i64 4, ptr %3) #8
  ret void
}