; Function Attrs: nounwind uwtable
define internal fastcc void @release_partition(ptr noundef captures(none) %0) unnamed_addr #0 {
  %2 = getelementptr inbounds nuw i8, ptr %0, i64 232
  %3 = load i32, ptr %2, align 8
  %4 = icmp sgt i32 %3, 0
  br i1 %4, label %.lr.ph, label %._crit_edge

.lr.ph:                                           ; preds = %1
  %5 = getelementptr inbounds nuw i8, ptr %0, i64 240
  br label %6

6:                                                ; preds = %.lr.ph, %13
  %7 = phi i32 [ %3, %.lr.ph ], [ %14, %13 ]
  %indvars.iv = phi i64 [ 0, %.lr.ph ], [ %indvars.iv.next, %13 ]
  %8 = load ptr, ptr %5, align 8
  %9 = getelementptr inbounds nuw %struct.WindowStatePerFuncData, ptr %8, i64 %indvars.iv, i32 9
  %10 = load ptr, ptr %9, align 8
  %.not24 = icmp eq ptr %10, null
  br i1 %.not24, label %13, label %11

11:                                               ; preds = %6
  %12 = getelementptr inbounds nuw i8, ptr %10, i64 24
  store ptr null, ptr %12, align 8
  %.pre = load i32, ptr %2, align 8
  br label %13

13:                                               ; preds = %11, %6
  %14 = phi i32 [ %.pre, %11 ], [ %7, %6 ]
  %indvars.iv.next = add nuw nsw i64 %indvars.iv, 1
  %15 = sext i32 %14 to i64
  %16 = icmp slt i64 %indvars.iv.next, %15
  br i1 %16, label %6, label %._crit_edge, !llvm.loop !24

._crit_edge:                                      ; preds = %13, %1
  %17 = getelementptr inbounds nuw i8, ptr %0, i64 544
  %18 = load ptr, ptr %17, align 8
  tail call void @MemoryContextReset(ptr noundef %18) #9
  %19 = getelementptr inbounds nuw i8, ptr %0, i64 552
  %20 = load ptr, ptr %19, align 8
  tail call void @MemoryContextReset(ptr noundef %20) #9
  %21 = getelementptr inbounds nuw i8, ptr %0, i64 236
  %22 = load i32, ptr %21, align 4
  %23 = icmp sgt i32 %22, 0
  br i1 %23, label %.lr.ph28, label %._crit_edge29

.lr.ph28:                                         ; preds = %._crit_edge
  %24 = getelementptr inbounds nuw i8, ptr %0, i64 248
  br label %25

25:                                               ; preds = %.lr.ph28, %32
  %26 = phi i32 [ %22, %.lr.ph28 ], [ %33, %32 ]
  %indvars.iv31 = phi i64 [ 0, %.lr.ph28 ], [ %indvars.iv.next32, %32 ]
  %27 = load ptr, ptr %24, align 8
  %28 = getelementptr inbounds nuw %struct.WindowStatePerAggData, ptr %27, i64 %indvars.iv31, i32 18
  %29 = load ptr, ptr %28, align 8
  %30 = load ptr, ptr %19, align 8
  %.not23 = icmp eq ptr %29, %30
  br i1 %.not23, label %32, label %31

31:                                               ; preds = %25
  tail call void @MemoryContextReset(ptr noundef %29) #9
  %.pre34 = load i32, ptr %21, align 4
  br label %32

32:                                               ; preds = %25, %31
  %33 = phi i32 [ %26, %25 ], [ %.pre34, %31 ]
  %indvars.iv.next32 = add nuw nsw i64 %indvars.iv31, 1
  %34 = sext i32 %33 to i64
  %35 = icmp slt i64 %indvars.iv.next32, %34
  br i1 %35, label %25, label %._crit_edge29, !llvm.loop !25

._crit_edge29:                                    ; preds = %32, %._crit_edge
  %36 = getelementptr inbounds nuw i8, ptr %0, i64 272
  %37 = load ptr, ptr %36, align 8
  %.not = icmp eq ptr %37, null
  br i1 %.not, label %39, label %38

38:                                               ; preds = %._crit_edge29
  tail call void @tuplestore_clear(ptr noundef nonnull %37) #9
  br label %39

39:                                               ; preds = %38, %._crit_edge29
  %40 = getelementptr inbounds nuw i8, ptr %0, i64 577
  store i8 0, ptr %40, align 1
  %41 = getelementptr inbounds nuw i8, ptr %0, i64 578
  store i8 1, ptr %41, align 2
  ret void
}